target datalayout = "e-m:e-p270:32:32-p271:32:32-p272:64:64-i64:64-i128:128-f80:128-n8:16:32:64-S128"
target triple = "x86_64-pc-linux-gnu"

%struct.archive_rb_tree_ops = type { ptr, ptr }
%struct.archive_match = type { %struct.archive, i32, i32, %struct.match_list, %struct.match_list, i64, i32, i64, i64, i32, i64, i64, i32, i64, i64, i32, i64, i64, %struct.archive_rb_tree, %struct.entry_list, %struct.id_array, %struct.id_array, %struct.match_list, %struct.match_list }
%struct.archive = type { i32, i32, ptr, i32, ptr, i32, i32, ptr, %struct.archive_string, ptr, i32, i32, ptr, ptr, i64, i64, i64, i8, i64 }
%struct.archive_string = type { ptr, i64, i64 }
%struct.archive_rb_tree = type { ptr, ptr }
%struct.entry_list = type { ptr, ptr, i32 }
%struct.id_array = type { i64, i64, ptr }
%struct.match_list = type { ptr, ptr, i32, i32, ptr, i32 }
%struct.archive_mstring = type { %struct.archive_string, %struct.archive_string, %struct.archive_wstring, %struct.archive_string, i32 }
%struct.archive_wstring = type { ptr, i64, i64 }
%struct.match_file = type { %struct.archive_rb_node, ptr, %struct.archive_mstring, i32, i64, i64, i64, i64 }
%struct.archive_rb_node = type { [2 x ptr], i64 }

@rb_ops_mbs = internal constant %struct.archive_rb_tree_ops { ptr @cmp_node_mbs, ptr @cmp_key_mbs }, align 8
@.str.2 = private unnamed_addr constant [14 x i8] c"entry is NULL\00", align 1
@.str.22 = private unnamed_addr constant [33 x i8] c"archive_match_time_include_entry\00", align 1
@.str.23 = private unnamed_addr constant [28 x i8] c"archive_match_exclude_entry\00", align 1
@.str.32 = private unnamed_addr constant [10 x i8] c"No memory\00", align 1
@.str.35 = private unnamed_addr constant [18 x i8] c"Invalid time flag\00", align 1
@.str.36 = private unnamed_addr constant [13 x i8] c"No time flag\00", align 1
@.str.37 = private unnamed_addr constant [24 x i8] c"Invalid comparison flag\00", align 1
@.str.38 = private unnamed_addr constant [19 x i8] c"No comparison flag\00", align 1
@.str.44 = private unnamed_addr constant [17 x i8] c"pathname is NULL\00", align 1

; Function Attrs: nounwind uwtable
define internal void @entry_list_add(ptr noundef %0, ptr noundef %1) #0 {
  %3 = alloca ptr, align 8
  %4 = alloca ptr, align 8
  store ptr %0, ptr %3, align 8, !tbaa !36
  store ptr %1, ptr %4, align 8, !tbaa !54
  %5 = load ptr, ptr %4, align 8, !tbaa !54
  %6 = load ptr, ptr %3, align 8, !tbaa !36
  %7 = getelementptr inbounds nuw %struct.entry_list, ptr %6, i32 0, i32 1
  %8 = load ptr, ptr %7, align 8, !tbaa !39
  store ptr %5, ptr %8, align 8, !tbaa !54
  %9 = load ptr, ptr %4, align 8, !tbaa !54
  %10 = getelementptr inbounds nuw %struct.match_file, ptr %9, i32 0, i32 1
  %11 = load ptr, ptr %3, align 8, !tbaa !36
  %12 = getelementptr inbounds nuw %struct.entry_list, ptr %11, i32 0, i32 1
  store ptr %10, ptr %12, align 8, !tbaa !39
  %13 = load ptr, ptr %3, align 8, !tbaa !36
  %14 = getelementptr inbounds nuw %struct.entry_list, ptr %13, i32 0, i32 2
  %15 = load i32, ptr %14, align 8, !tbaa !40
  %16 = add nsw i32 %15, 1
  store i32 %16, ptr %14, align 8, !tbaa !40
  ret void
}

; Function Attrs: nounwind uwtable
define internal i32 @error_nomem(ptr noundef %0) #0 {
  %2 = alloca ptr, align 8
  store ptr %0, ptr %2, align 8, !tbaa !4
  %3 = load ptr, ptr %2, align 8, !tbaa !4
  %4 = getelementptr inbounds nuw %struct.archive_match, ptr %3, i32 0, i32 0
  call void (ptr, i32, ptr, ...) @archive_set_error(ptr noundef %4, i32 noundef 12, ptr noundef @.str.32)
  %5 = load ptr, ptr %2, align 8, !tbaa !4
  %6 = getelementptr inbounds nuw %struct.archive_match, ptr %5, i32 0, i32 0
  %7 = getelementptr inbounds nuw %struct.archive, ptr %6, i32 0, i32 1
  store i32 32768, ptr %7, align 4, !tbaa !29
  ret i32 -30
}

; Function Attrs: nounwind uwtable
define internal i32 @add_entry(ptr noundef %0, i32 noundef %1, ptr noundef %2) #0 {
  %4 = alloca i32, align 4
  %5 = alloca ptr, align 8
  %6 = alloca i32, align 4
  %7 = alloca ptr, align 8
  %8 = alloca ptr, align 8
  %9 = alloca ptr, align 8
  %10 = alloca i32, align 4
  %11 = alloca i32, align 4
  %12 = alloca ptr, align 8
  store ptr %0, ptr %5, align 8, !tbaa !4
  store i32 %1, ptr %6, align 4, !tbaa !43
  store ptr %2, ptr %7, align 8, !tbaa !59
  call void @llvm.lifetime.start.p0(i64 8, ptr %8) #9
  call void @llvm.lifetime.start.p0(i64 8, ptr %9) #9
  call void @llvm.lifetime.start.p0(i64 4, ptr %10) #9
  %13 = call noalias ptr @calloc(i64 noundef 1, i64 noundef 176) #10
  store ptr %13, ptr %8, align 8, !tbaa !54
  %14 = load ptr, ptr %8, align 8, !tbaa !54
  %15 = icmp eq ptr %14, null
  br i1 %15, label %16, label %19

16:                                               ; preds = %3
  %17 = load ptr, ptr %5, align 8, !tbaa !4
  %18 = call i32 @error_nomem(ptr noundef %17)
  store i32 %18, ptr %4, align 4
  store i32 1, ptr %11, align 4
  br label %107

19:                                               ; preds = %3
  %20 = load ptr, ptr %7, align 8, !tbaa !59
  %21 = call ptr @archive_entry_pathname(ptr noundef %20)
  store ptr %21, ptr %9, align 8, !tbaa !62
  %22 = load ptr, ptr %9, align 8, !tbaa !62
  %23 = icmp eq ptr %22, null
  br i1 %23, label %24, label %28

24:                                               ; preds = %19
  %25 = load ptr, ptr %8, align 8, !tbaa !54
  call void @free(ptr noundef %25) #9
  %26 = load ptr, ptr %5, align 8, !tbaa !4
  %27 = getelementptr inbounds nuw %struct.archive_match, ptr %26, i32 0, i32 0
  call void (ptr, i32, ptr, ...) @archive_set_error(ptr noundef %27, i32 noundef 22, ptr noundef @.str.44)
  store i32 -25, ptr %4, align 4
  store i32 1, ptr %11, align 4
  br label %107

28:                                               ; preds = %19
  %29 = load ptr, ptr %8, align 8, !tbaa !54
  %30 = getelementptr inbounds nuw %struct.match_file, ptr %29, i32 0, i32 2
  %31 = load ptr, ptr %9, align 8, !tbaa !62
  %32 = call i32 @archive_mstring_copy_mbs(ptr noundef %30, ptr noundef %31)
  %33 = load ptr, ptr %5, align 8, !tbaa !4
  %34 = getelementptr inbounds nuw %struct.archive_match, ptr %33, i32 0, i32 18
  %35 = getelementptr inbounds nuw %struct.archive_rb_tree, ptr %34, i32 0, i32 1
  store ptr @rb_ops_mbs, ptr %35, align 8, !tbaa !84
  %36 = load i32, ptr %6, align 4, !tbaa !43
  %37 = load ptr, ptr %8, align 8, !tbaa !54
  %38 = getelementptr inbounds nuw %struct.match_file, ptr %37, i32 0, i32 3
  store i32 %36, ptr %38, align 8, !tbaa !85
  %39 = load ptr, ptr %7, align 8, !tbaa !59
  %40 = call i64 @archive_entry_mtime(ptr noundef %39)
  %41 = load ptr, ptr %8, align 8, !tbaa !54
  %42 = getelementptr inbounds nuw %struct.match_file, ptr %41, i32 0, i32 4
  store i64 %40, ptr %42, align 8, !tbaa !88
  %43 = load ptr, ptr %7, align 8, !tbaa !59
  %44 = call i64 @archive_entry_mtime_nsec(ptr noundef %43)
  %45 = load ptr, ptr %8, align 8, !tbaa !54
  %46 = getelementptr inbounds nuw %struct.match_file, ptr %45, i32 0, i32 5
  store i64 %44, ptr %46, align 8, !tbaa !89
  %47 = load ptr, ptr %7, align 8, !tbaa !59
  %48 = call i64 @archive_entry_ctime(ptr noundef %47)
  %49 = load ptr, ptr %8, align 8, !tbaa !54
  %50 = getelementptr inbounds nuw %struct.match_file, ptr %49, i32 0, i32 6
  store i64 %48, ptr %50, align 8, !tbaa !86
  %51 = load ptr, ptr %7, align 8, !tbaa !59
  %52 = call i64 @archive_entry_ctime_nsec(ptr noundef %51)
  %53 = load ptr, ptr %8, align 8, !tbaa !54
  %54 = getelementptr inbounds nuw %struct.match_file, ptr %53, i32 0, i32 7
  store i64 %52, ptr %54, align 8, !tbaa !87
  %55 = load ptr, ptr %5, align 8, !tbaa !4
  %56 = getelementptr inbounds nuw %struct.archive_match, ptr %55, i32 0, i32 18
  %57 = load ptr, ptr %8, align 8, !tbaa !54
  %58 = getelementptr inbounds nuw %struct.match_file, ptr %57, i32 0, i32 0
  %59 = call i32 @__archive_rb_tree_insert_node(ptr noundef %56, ptr noundef %58)
  store i32 %59, ptr %10, align 4, !tbaa !43
  %60 = load i32, ptr %10, align 4, !tbaa !43
  %61 = icmp ne i32 %60, 0
  br i1 %61, label %99, label %62

62:                                               ; preds = %28
  call void @llvm.lifetime.start.p0(i64 8, ptr %12) #9
  %63 = load ptr, ptr %5, align 8, !tbaa !4
  %64 = getelementptr inbounds nuw %struct.archive_match, ptr %63, i32 0, i32 18
  %65 = load ptr, ptr %9, align 8, !tbaa !62
  %66 = call ptr @__archive_rb_tree_find_node(ptr noundef %64, ptr noundef %65)
  store ptr %66, ptr %12, align 8, !tbaa !54
  %67 = load ptr, ptr %12, align 8, !tbaa !54
  %68 = icmp ne ptr %67, null
  br i1 %68, label %69, label %95

69:                                               ; preds = %62
  %70 = load ptr, ptr %8, align 8, !tbaa !54
  %71 = getelementptr inbounds nuw %struct.match_file, ptr %70, i32 0, i32 3
  %72 = load i32, ptr %71, align 8, !tbaa !85
  %73 = load ptr, ptr %12, align 8, !tbaa !54
  %74 = getelementptr inbounds nuw %struct.match_file, ptr %73, i32 0, i32 3
  store i32 %72, ptr %74, align 8, !tbaa !85
  %75 = load ptr, ptr %8, align 8, !tbaa !54
  %76 = getelementptr inbounds nuw %struct.match_file, ptr %75, i32 0, i32 4
  %77 = load i64, ptr %76, align 8, !tbaa !88
  %78 = load ptr, ptr %12, align 8, !tbaa !54
  %79 = getelementptr inbounds nuw %struct.match_file, ptr %78, i32 0, i32 4
  store i64 %77, ptr %79, align 8, !tbaa !88
  %80 = load ptr, ptr %8, align 8, !tbaa !54
  %81 = getelementptr inbounds nuw %struct.match_file, ptr %80, i32 0, i32 5
  %82 = load i64, ptr %81, align 8, !tbaa !89
  %83 = load ptr, ptr %12, align 8, !tbaa !54
  %84 = getelementptr inbounds nuw %struct.match_file, ptr %83, i32 0, i32 5
  store i64 %82, ptr %84, align 8, !tbaa !89
  %85 = load ptr, ptr %8, align 8, !tbaa !54
  %86 = getelementptr inbounds nuw %struct.match_file, ptr %85, i32 0, i32 6
  %87 = load i64, ptr %86, align 8, !tbaa !86
  %88 = load ptr, ptr %12, align 8, !tbaa !54
  %89 = getelementptr inbounds nuw %struct.match_file, ptr %88, i32 0, i32 6
  store i64 %87, ptr %89, align 8, !tbaa !86
  %90 = load ptr, ptr %8, align 8, !tbaa !54
  %91 = getelementptr inbounds nuw %struct.match_file, ptr %90, i32 0, i32 7
  %92 = load i64, ptr %91, align 8, !tbaa !87
  %93 = load ptr, ptr %12, align 8, !tbaa !54
  %94 = getelementptr inbounds nuw %struct.match_file, ptr %93, i32 0, i32 7
  store i64 %92, ptr %94, align 8, !tbaa !87
  br label %95

95:                                               ; preds = %69, %62
  %96 = load ptr, ptr %8, align 8, !tbaa !54
  %97 = getelementptr inbounds nuw %struct.match_file, ptr %96, i32 0, i32 2
  call void @archive_mstring_clean(ptr noundef %97)
  %98 = load ptr, ptr %8, align 8, !tbaa !54
  call void @free(ptr noundef %98) #9
  store i32 0, ptr %4, align 4
  store i32 1, ptr %11, align 4
  call void @llvm.lifetime.end.p0(i64 8, ptr %12) #9
  br label %107

99:                                               ; preds = %28
  %100 = load ptr, ptr %5, align 8, !tbaa !4
  %101 = getelementptr inbounds nuw %struct.archive_match, ptr %100, i32 0, i32 19
  %102 = load ptr, ptr %8, align 8, !tbaa !54
  call void @entry_list_add(ptr noundef %101, ptr noundef %102)
  %103 = load ptr, ptr %5, align 8, !tbaa !4
  %104 = getelementptr inbounds nuw %struct.archive_match, ptr %103, i32 0, i32 1
  %105 = load i32, ptr %104, align 8, !tbaa !61
  %106 = or i32 %105, 2
  store i32 %106, ptr %104, align 8, !tbaa !61
  store i32 0, ptr %4, align 4
  store i32 1, ptr %11, align 4
  br label %107

107:                                              ; preds = %99, %95, %24, %16
  call void @llvm.lifetime.end.p0(i64 4, ptr %10) #9
  call void @llvm.lifetime.end.p0(i64 8, ptr %9) #9
  call void @llvm.lifetime.end.p0(i64 8, ptr %8) #9
  %108 = load i32, ptr %4, align 4
  ret i32 %108
}

; Function Attrs: nounwind uwtable
define internal i32 @validate_time_flag(ptr noundef %0, i32 noundef %1, ptr noundef %2) #0 {
  %4 = alloca i32, align 4
  %5 = alloca ptr, align 8
  %6 = alloca i32, align 4
  %7 = alloca ptr, align 8
  %8 = alloca i32, align 4
  %9 = alloca i32, align 4
  store ptr %0, ptr %5, align 8, !tbaa !41
  store i32 %1, ptr %6, align 4, !tbaa !43
  store ptr %2, ptr %7, align 8, !tbaa !94
  br label %10

10:                                               ; preds = %3
  call void @llvm.lifetime.start.p0(i64 4, ptr %8) #9
  %11 = load ptr, ptr %5, align 8, !tbaa !41
  %12 = load ptr, ptr %7, align 8, !tbaa !94
  %13 = call i32 @__archive_check_magic(ptr noundef %11, i32 noundef 212668873, i32 noundef 1, ptr noundef %12)
  store i32 %13, ptr %8, align 4, !tbaa !43
  %14 = load i32, ptr %8, align 4, !tbaa !43
  %15 = icmp eq i32 %14, -30
  br i1 %15, label %16, label %17

16:                                               ; preds = %10
  store i32 -30, ptr %4, align 4
  store i32 1, ptr %9, align 4
  br label %18

17:                                               ; preds = %10
  store i32 0, ptr %9, align 4
  br label %18

18:                                               ; preds = %17, %16
  call void @llvm.lifetime.end.p0(i64 4, ptr %8) #9
  %19 = load i32, ptr %9, align 4
  switch i32 %19, label %48 [
    i32 0, label %20
    i32 1, label %46
  ]

20:                                               ; preds = %18
  br label %21

21:                                               ; preds = %20
  %22 = load i32, ptr %6, align 4, !tbaa !43
  %23 = and i32 %22, 64512
  %24 = icmp ne i32 %23, 0
  br i1 %24, label %25, label %27

25:                                               ; preds = %21
  %26 = load ptr, ptr %5, align 8, !tbaa !41
  call void (ptr, i32, ptr, ...) @archive_set_error(ptr noundef %26, i32 noundef 22, ptr noundef @.str.35)
  store i32 -25, ptr %4, align 4
  br label %46

27:                                               ; preds = %21
  %28 = load i32, ptr %6, align 4, !tbaa !43
  %29 = and i32 %28, 768
  %30 = icmp eq i32 %29, 0
  br i1 %30, label %31, label %33

31:                                               ; preds = %27
  %32 = load ptr, ptr %5, align 8, !tbaa !41
  call void (ptr, i32, ptr, ...) @archive_set_error(ptr noundef %32, i32 noundef 22, ptr noundef @.str.36)
  store i32 -25, ptr %4, align 4
  br label %46

33:                                               ; preds = %27
  %34 = load i32, ptr %6, align 4, !tbaa !43
  %35 = and i32 %34, 236
  %36 = icmp ne i32 %35, 0
  br i1 %36, label %37, label %39

37:                                               ; preds = %33
  %38 = load ptr, ptr %5, align 8, !tbaa !41
  call void (ptr, i32, ptr, ...) @archive_set_error(ptr noundef %38, i32 noundef 22, ptr noundef @.str.37)
  store i32 -25, ptr %4, align 4
  br label %46

39:                                               ; preds = %33
  %40 = load i32, ptr %6, align 4, !tbaa !43
  %41 = and i32 %40, 19
  %42 = icmp eq i32 %41, 0
  br i1 %42, label %43, label %45

43:                                               ; preds = %39
  %44 = load ptr, ptr %5, align 8, !tbaa !41
  call void (ptr, i32, ptr, ...) @archive_set_error(ptr noundef %44, i32 noundef 22, ptr noundef @.str.38)
  store i32 -25, ptr %4, align 4
  br label %46

45:                                               ; preds = %39
  store i32 0, ptr %4, align 4
  br label %46

46:                                               ; preds = %45, %43, %37, %31, %25, %18
  %47 = load i32, ptr %4, align 4
  ret i32 %47

48:                                               ; preds = %18
  unreachable
}

; Function Attrs: nounwind uwtable
define dso_local i32 @archive_match_exclude_entry(ptr noundef %0, i32 noundef %1, ptr noundef %2) #0 {
  %4 = alloca i32, align 4
  %5 = alloca ptr, align 8
  %6 = alloca i32, align 4
  %7 = alloca ptr, align 8
  %8 = alloca ptr, align 8
  %9 = alloca i32, align 4
  %10 = alloca i32, align 4
  %11 = alloca i32, align 4
  store ptr %0, ptr %5, align 8, !tbaa !41
  store i32 %1, ptr %6, align 4, !tbaa !43
  store ptr %2, ptr %7, align 8, !tbaa !59
  call void @llvm.lifetime.start.p0(i64 8, ptr %8) #9
  call void @llvm.lifetime.start.p0(i64 4, ptr %9) #9
  br label %12

12:                                               ; preds = %3
  call void @llvm.lifetime.start.p0(i64 4, ptr %10) #9
  %13 = load ptr, ptr %5, align 8, !tbaa !41
  %14 = call i32 @__archive_check_magic(ptr noundef %13, i32 noundef 212668873, i32 noundef 1, ptr noundef @.str.22)
  store i32 %14, ptr %10, align 4, !tbaa !43
  %15 = load i32, ptr %10, align 4, !tbaa !43
  %16 = icmp eq i32 %15, -30
  br i1 %16, label %17, label %18

17:                                               ; preds = %12
  store i32 -30, ptr %4, align 4
  store i32 1, ptr %11, align 4
  br label %19

18:                                               ; preds = %12
  store i32 0, ptr %11, align 4
  br label %19

19:                                               ; preds = %18, %17
  call void @llvm.lifetime.end.p0(i64 4, ptr %10) #9
  %20 = load i32, ptr %11, align 4
  switch i32 %20, label %43 [
    i32 0, label %21
  ]

21:                                               ; preds = %19
  br label %22

22:                                               ; preds = %21
  br label %23

23:                                               ; preds = %22
  %24 = load ptr, ptr %5, align 8, !tbaa !41
  store ptr %24, ptr %8, align 8, !tbaa !4
  %25 = load ptr, ptr %7, align 8, !tbaa !59
  %26 = icmp eq ptr %25, null
  br i1 %26, label %27, label %30

27:                                               ; preds = %23
  %28 = load ptr, ptr %8, align 8, !tbaa !4
  %29 = getelementptr inbounds nuw %struct.archive_match, ptr %28, i32 0, i32 0
  call void (ptr, i32, ptr, ...) @archive_set_error(ptr noundef %29, i32 noundef 22, ptr noundef @.str.2)
  store i32 -25, ptr %4, align 4
  store i32 1, ptr %11, align 4
  br label %43

30:                                               ; preds = %23
  %31 = load ptr, ptr %5, align 8, !tbaa !41
  %32 = load i32, ptr %6, align 4, !tbaa !43
  %33 = call i32 @validate_time_flag(ptr noundef %31, i32 noundef %32, ptr noundef @.str.23)
  store i32 %33, ptr %9, align 4, !tbaa !43
  %34 = load i32, ptr %9, align 4, !tbaa !43
  %35 = icmp ne i32 %34, 0
  br i1 %35, label %36, label %38

36:                                               ; preds = %30
  %37 = load i32, ptr %9, align 4, !tbaa !43
  store i32 %37, ptr %4, align 4
  store i32 1, ptr %11, align 4
  br label %43

38:                                               ; preds = %30
  %39 = load ptr, ptr %8, align 8, !tbaa !4
  %40 = load i32, ptr %6, align 4, !tbaa !43
  %41 = load ptr, ptr %7, align 8, !tbaa !59
  %42 = call i32 @add_entry(ptr noundef %39, i32 noundef %40, ptr noundef %41)
  store i32 %42, ptr %4, align 4
  store i32 1, ptr %11, align 4
  br label %43

43:                                               ; preds = %38, %36, %27, %19
  call void @llvm.lifetime.end.p0(i64 4, ptr %9) #9
  call void @llvm.lifetime.end.p0(i64 8, ptr %8) #9
  %44 = load i32, ptr %4, align 4
  ret i32 %44
}