; Function Attrs: nounwind uwtable
define dso_local range(i32 -30, 1) i32 @archive_match_exclude_entry(ptr noundef %0, i32 noundef %1, ptr noundef %2) local_unnamed_addr #0 {
  %4 = tail call i32 @__archive_check_magic(ptr noundef %0, i32 noundef 212668873, i32 noundef 1, ptr noundef nonnull @.str.22) #14
  %.not = icmp eq i32 %4, -30
  br i1 %.not, label %add_entry.exit, label %5

5:                                                ; preds = %3
  %6 = icmp eq ptr %2, null
  br i1 %6, label %7, label %8

7:                                                ; preds = %5
  tail call void (ptr, i32, ptr, ...) @archive_set_error(ptr noundef %0, i32 noundef 22, ptr noundef nonnull @.str.2) #14
  br label %add_entry.exit

8:                                                ; preds = %5
  %9 = tail call i32 @__archive_check_magic(ptr noundef %0, i32 noundef 212668873, i32 noundef 1, ptr noundef nonnull @.str.23) #14
  %.not14.i = icmp eq i32 %9, -30
  br i1 %.not14.i, label %add_entry.exit, label %10

10:                                               ; preds = %8
  %11 = and i32 %1, 64512
  %.not.i = icmp eq i32 %11, 0
  br i1 %.not.i, label %12, label %.sink.split.i

12:                                               ; preds = %10
  %13 = and i32 %1, 768
  %14 = icmp eq i32 %13, 0
  br i1 %14, label %.sink.split.i, label %15

15:                                               ; preds = %12
  %16 = and i32 %1, 236
  %.not13.i = icmp eq i32 %16, 0
  br i1 %.not13.i, label %17, label %.sink.split.i

17:                                               ; preds = %15
  %18 = and i32 %1, 19
  %19 = icmp eq i32 %18, 0
  br i1 %19, label %.sink.split.i, label %validate_time_flag.exit

.sink.split.i:                                    ; preds = %17, %15, %12, %10
  %.str.38.sink.i = phi ptr [ @.str.35, %10 ], [ @.str.36, %12 ], [ @.str.37, %15 ], [ @.str.38, %17 ]
  tail call void (ptr, i32, ptr, ...) @archive_set_error(ptr noundef %0, i32 noundef 22, ptr noundef nonnull %.str.38.sink.i) #14
  br label %add_entry.exit

validate_time_flag.exit:                          ; preds = %17
  %20 = tail call noalias dereferenceable_or_null(176) ptr @calloc(i64 noundef 1, i64 noundef 176) #13
  %21 = icmp eq ptr %20, null
  br i1 %21, label %22, label %24

22:                                               ; preds = %validate_time_flag.exit
  tail call void (ptr, i32, ptr, ...) @archive_set_error(ptr noundef %0, i32 noundef 12, ptr noundef nonnull @.str.32) #14
  %23 = getelementptr inbounds nuw i8, ptr %0, i64 4
  store i32 32768, ptr %23, align 4, !tbaa !27
  br label %add_entry.exit

24:                                               ; preds = %validate_time_flag.exit
  %25 = tail call ptr @archive_entry_pathname(ptr noundef nonnull %2) #14
  %26 = icmp eq ptr %25, null
  br i1 %26, label %27, label %28

27:                                               ; preds = %24
  tail call void @free(ptr noundef nonnull %20) #14
  tail call void (ptr, i32, ptr, ...) @archive_set_error(ptr noundef %0, i32 noundef 22, ptr noundef nonnull @.str.44) #14
  br label %add_entry.exit

28:                                               ; preds = %24
  %29 = getelementptr inbounds nuw i8, ptr %20, i64 32
  %30 = tail call i32 @archive_mstring_copy_mbs(ptr noundef nonnull %29, ptr noundef nonnull %25) #14
  %31 = getelementptr inbounds nuw i8, ptr %0, i64 336
  %32 = getelementptr inbounds nuw i8, ptr %0, i64 344
  store ptr @rb_ops_mbs, ptr %32, align 8, !tbaa !71
  %33 = getelementptr inbounds nuw i8, ptr %20, i64 136
  store i32 %1, ptr %33, align 8, !tbaa !72
  %34 = tail call i64 @archive_entry_mtime(ptr noundef nonnull %2) #14
  %35 = getelementptr inbounds nuw i8, ptr %20, i64 144
  store i64 %34, ptr %35, align 8, !tbaa !75
  %36 = tail call i64 @archive_entry_mtime_nsec(ptr noundef nonnull %2) #14
  %37 = getelementptr inbounds nuw i8, ptr %20, i64 152
  store i64 %36, ptr %37, align 8, !tbaa !76
  %38 = tail call i64 @archive_entry_ctime(ptr noundef nonnull %2) #14
  %39 = getelementptr inbounds nuw i8, ptr %20, i64 160
  store i64 %38, ptr %39, align 8, !tbaa !73
  %40 = tail call i64 @archive_entry_ctime_nsec(ptr noundef nonnull %2) #14
  %41 = getelementptr inbounds nuw i8, ptr %20, i64 168
  store i64 %40, ptr %41, align 8, !tbaa !74
  %42 = tail call i32 @__archive_rb_tree_insert_node(ptr noundef nonnull %31, ptr noundef nonnull %20) #14
  %.not.i17 = icmp eq i32 %42, 0
  br i1 %.not.i17, label %43, label %57

43:                                               ; preds = %28
  %44 = tail call ptr @__archive_rb_tree_find_node(ptr noundef nonnull %31, ptr noundef nonnull %25) #14
  %.not43.i = icmp eq ptr %44, null
  br i1 %.not43.i, label %56, label %45

45:                                               ; preds = %43
  %46 = load i32, ptr %33, align 8, !tbaa !72
  %47 = getelementptr inbounds nuw i8, ptr %44, i64 136
  store i32 %46, ptr %47, align 8, !tbaa !72
  %48 = load i64, ptr %35, align 8, !tbaa !75
  %49 = getelementptr inbounds nuw i8, ptr %44, i64 144
  store i64 %48, ptr %49, align 8, !tbaa !75
  %50 = load i64, ptr %37, align 8, !tbaa !76
  %51 = getelementptr inbounds nuw i8, ptr %44, i64 152
  store i64 %50, ptr %51, align 8, !tbaa !76
  %52 = load i64, ptr %39, align 8, !tbaa !73
  %53 = getelementptr inbounds nuw i8, ptr %44, i64 160
  store i64 %52, ptr %53, align 8, !tbaa !73
  %54 = load i64, ptr %41, align 8, !tbaa !74
  %55 = getelementptr inbounds nuw i8, ptr %44, i64 168
  store i64 %54, ptr %55, align 8, !tbaa !74
  br label %56

56:                                               ; preds = %45, %43
  tail call void @archive_mstring_clean(ptr noundef nonnull %29) #14
  tail call void @free(ptr noundef nonnull %20) #14
  br label %add_entry.exit

57:                                               ; preds = %28
  %58 = getelementptr inbounds nuw i8, ptr %0, i64 360
  %59 = load ptr, ptr %58, align 8, !tbaa !31
  store ptr %20, ptr %59, align 8, !tbaa !98
  %60 = getelementptr inbounds nuw i8, ptr %20, i64 24
  store ptr %60, ptr %58, align 8, !tbaa !31
  %61 = getelementptr inbounds nuw i8, ptr %0, i64 368
  %62 = load i32, ptr %61, align 8, !tbaa !32
  %63 = add nsw i32 %62, 1
  store i32 %63, ptr %61, align 8, !tbaa !32
  %64 = getelementptr inbounds nuw i8, ptr %0, i64 144
  %65 = load i32, ptr %64, align 8, !tbaa !48
  %66 = or i32 %65, 2
  store i32 %66, ptr %64, align 8, !tbaa !48
  br label %add_entry.exit

add_entry.exit:                                   ; preds = %.sink.split.i, %8, %57, %56, %27, %22, %3, %7
  %.1 = phi i32 [ -25, %7 ], [ -30, %3 ], [ -30, %22 ], [ -25, %27 ], [ 0, %57 ], [ 0, %56 ], [ -25, %.sink.split.i ], [ -30, %8 ]
  ret i32 %.1
}